(dp0
S'all'
p1
F-9.243173983472952
sS'wire'
p2
F-9.243173983472952
sS'hats'
p3
F-9.828136484194108
sS'gb'
p4
F-9.243173983472952
sS'hanging'
p5
F-8.828136484194108
sS'dish'
p6
F-9.828136484194108
sS'activates'
p7
F-9.828136484194108
sS'issues'
p8
F-8.828136484194108
sS'seemed'
p9
F-9.828136484194108
sS'certainly'
p10
F-9.243173983472952
sS'keystrokes'
p11
F-9.828136484194108
sS'tv'
p12
F-9.828136484194108
sS'to'
p13
F-9.828136484194108
sS'charge'
p14
F-9.828136484194108
sS'under'
p15
F-9.828136484194108
sS'friendly'
p16
F-9.828136484194108
sS'customer'
p17
F-9.828136484194108
sS'wished'
p18
F-9.828136484194108
sS'far'
p19
F-9.243173983472952
sS'dell'
p20
F-9.828136484194108
sS'choice'
p21
F-9.243173983472952
sS'surprise'
p22
F-9.828136484194108
sS'cook'
p23
F-9.828136484194108
sS'exact'
p24
F-9.828136484194108
sS'cool'
p25
F-8.506208389306744
sS'impressive'
p26
F-9.828136484194108
sS'cable'
p27
F-9.243173983472952
sS'purely'
p28
F-9.828136484194108
sS'did'
p29
F-9.828136484194108
sS'list'
p30
F-9.828136484194108
sS'large'
p31
F-9.828136484194108
sS'item'
p32
F-9.828136484194108
sS'offering'
p33
F-9.828136484194108
sS'crotch'
p34
F-9.828136484194108
sS'quick'
p35
F-9.828136484194108
sS'htc'
p36
F-9.828136484194108
sS'phones'
p37
F-9.243173983472952
sS'past'
p38
F-9.828136484194108
sS'rate'
p39
F-9.828136484194108
sS'cost'
p40
F-9.828136484194108
sS'design'
p41
F-8.828136484194108
sS'perspective'
p42
F-9.828136484194108
sS'casual'
p43
F-9.243173983472952
sS'headset'
p44
F-9.828136484194108
sS'sennheiser'
p45
F-9.828136484194108
sS'sub'
p46
F-9.828136484194108
sS'+'
p47
I1
sS'cell'
p48
F-9.243173983472952
sS'indian'
p49
F-9.828136484194108
sS'ever'
p50
F-9.243173983472952
sS'full'
p51
F-9.828136484194108
sS'never'
p52
F-9.828136484194108
sS'here'
p53
F-9.828136484194108
sS'hours'
p54
F-9.828136484194108
sS'packing'
p55
F-9.828136484194108
sS'protection'
p56
F-9.828136484194108
sS'strong'
p57
F-9.243173983472952
sS'change'
p58
F-9.828136484194108
sS'box'
p59
F-9.828136484194108
sS'buck'
p60
F-8.828136484194108
sS'great'
p61
F-6.5802089707505225
sS'ahead'
p62
F-9.243173983472952
sS'brilliant'
p63
F-9.243173983472952
sS'k'
p64
F-9.243173983472952
sS'experience'
p65
F-9.243173983472952
sS'jogging'
p66
F-9.828136484194108
sS'suitable'
p67
F-9.243173983472952
sS'motoe'
p68
F-9.828136484194108
sS'fantastic'
p69
F-9.828136484194108
sS'love'
p70
F-8.24317398347295
sS'search'
p71
F-9.828136484194108
sS'highly'
p72
F-8.020781562136504
sS'add-on'
p73
F-9.828136484194108
sS'apply'
p74
F-9.828136484194108
sS'total'
p75
F-9.828136484194108
sS'market'
p76
F-9.828136484194108
sS'jan'
p77
F-9.828136484194108
sS'use'
p78
F-8.828136484194108
sS'takes'
p79
F-9.828136484194108
sS'working'
p80
F-8.828136484194108
sS'opt'
p81
F-9.243173983472952
sS'few'
p82
F-9.828136484194108
sS'doubt'
p83
F-8.828136484194108
sS'music'
p84
F-8.020781562136504
sS'memory'
p85
F-9.828136484194108
sS'branded'
p86
F-9.828136484194108
sS'in-ear'
p87
F-9.828136484194108
sS'more'
p88
F-8.506208389306744
sS'varient'
p89
F-9.828136484194108
sS'comfortablejust'
p90
F-9.828136484194108
sS'phone'
p91
F-8.020781562136504
sS'excellent'
p92
F-6.6582114827517955
sS'compactlyas'
p93
F-9.828136484194108
sS'must'
p94
F-8.24317398347295
sS'me'
p95
F-9.828136484194108
sS'hour'
p96
F-9.828136484194108
sS'setup'
p97
F-9.828136484194108
sS'perfectthe'
p98
F-9.828136484194108
sS'worth'
p99
F-7.36870486555681
sS'thin'
p100
F-9.828136484194108
sS'learn'
p101
F-9.828136484194108
sS'proof'
p102
F-9.828136484194108
sS'compare'
p103
F-8.828136484194108
sS'awesome'
p104
F-7.36870486555681
sS'slim'
p105
F-9.243173983472952
sS'india'
p106
F-9.828136484194108
sS'tag'
p107
F-9.828136484194108
sS'bend'
p108
F-9.828136484194108
sS'sought'
p109
F-9.828136484194108
sS'hesitate'
p110
F-9.828136484194108
sS'needs'
p111
F-9.828136484194108
sS'comfort'
p112
F-9.243173983472952
sS'feature'
p113
F-9.828136484194108
sS'refrence'
p114
F-9.828136484194108
sS'till'
p115
F-9.828136484194108
sS'hot'
p116
F-9.828136484194108
sS'pair'
p117
F-9.243173983472952
sS'interview'
p118
F-9.828136484194108
sS'economy'
p119
F-9.828136484194108
sS'lan'
p120
F-9.828136484194108
sS'intended'
p121
F-9.828136484194108
sS'may'
p122
F-9.828136484194108
sS'stop'
p123
F-9.828136484194108
sS'lag'
p124
F-9.828136484194108
sS'collection'
p125
F-9.828136484194108
sS'noise'
p126
F-9.828136484194108
sS'fits'
p127
F-8.828136484194108
sS'data'
p128
F-9.828136484194108
sS'purchase'
p129
F-9.828136484194108
sS'remember'
p130
F-9.828136484194108
sS'light'
p131
F-8.24317398347295
sS'appreciate'
p132
F-9.828136484194108
sS'so'
p133
F-9.828136484194108
sS'ultimate'
p134
F-9.828136484194108
sS'ethernet'
p135
F-9.828136484194108
sS'words'
p136
F-9.243173983472952
sS'playing'
p137
F-9.828136484194108
sS'exclusive'
p138
F-9.828136484194108
sS'shoes'
p139
F-8.020781562136504
sS'iti'
p140
F-9.828136484194108
sS'satisfied'
p141
F-7.506208389306745
sS'years'
p142
F-9.828136484194108
sS'stability'
p143
F-9.828136484194108
sS'paper'
p144
F-9.828136484194108
sS'looks'
p145
F-8.020781562136504
sS'oven'
p146
F-9.828136484194108
sS'keyboard'
p147
F-8.828136484194108
sS'responsive'
p148
F-9.828136484194108
sS'its'
p149
F-7.828136484194107
sS'deactivates'
p150
F-9.828136484194108
sS'dont'
p151
F-8.506208389306744
sS'perfect'
p152
F-7.506208389306745
sS'superior'
p153
F-9.828136484194108
sS'fit'
p154
F-8.828136484194108
sS'tsi'
p155
F-9.828136484194108
sS'expectations'
p156
F-9.828136484194108
sS'better'
p157
F-9.243173983472952
sS'spacious'
p158
F-9.828136484194108
sS'happened'
p159
F-9.828136484194108
sS'them'
p160
F-8.828136484194108
sS'good'
p161
F-4.873940173807232
sS'views'
p162
F-9.828136484194108
sS'material'
p163
F-9.243173983472952
sS'dealbe'
p164
F-9.828136484194108
sS'bang'
p165
F-8.828136484194108
sS'hands'
p166
F-9.828136484194108
sS'front'
p167
F-9.828136484194108
sS'son'
p168
F-9.828136484194108
sS'nor'
p169
F-9.828136484194108
sS'possess'
p170
F-9.828136484194108
sS'name'
p171
F-9.828136484194108
sS'always'
p172
F-9.828136484194108
sS'rocks'
p173
F-9.828136484194108
sS'stopped'
p174
F-9.828136484194108
sS'reasonable'
p175
F-8.506208389306744
sS'found'
p176
F-9.243173983472952
sS'stock'
p177
F-9.828136484194108
sS'flipkart'
p178
F-8.24317398347295
sS'everyone'
p179
F-9.828136484194108
sS'weight'
p180
F-8.828136484194108
sS'product'
p181
F-4.921245888585589
sS'books'
p182
F-9.828136484194108
sS'expect'
p183
F-9.828136484194108
sS'beyond'
p184
F-9.828136484194108
sS'really'
p185
F-7.127696766053015
sS'leave'
p186
F-9.828136484194108
sS'shown'
p187
F-9.828136484194108
sS'goi'
p188
F-9.828136484194108
sS'gamers'
p189
F-9.828136484194108
sS'quality'
p190
F-5.740673642943768
sS'tried'
p191
F-9.828136484194108
sS'looking'
p192
F-9.243173983472952
sS'printning'
p193
F-9.828136484194108
sS'internet'
p194
F-9.828136484194108
sS'got'
p195
F-8.24317398347295
sS'happenings'
p196
F-9.828136484194108
sS'bass'
p197
F-8.828136484194108
sS'impressed'
p198
F-9.828136484194108
sS'given'
p199
F-9.828136484194108
sS'quite'
p200
F-8.24317398347295
sS'small'
p201
F-8.828136484194108
sS'base'
p202
F-9.828136484194108
sS'complicated'
p203
F-9.828136484194108
sS'x'
p204
F-9.243173983472952
sS'wanted'
p205
F-9.828136484194108
sS'grab'
p206
F-9.828136484194108
sS'card'
p207
F-9.828136484194108
sS'service'
p208
F-9.828136484194108
sS'headphones'
p209
F-9.243173983472952
sS'running'
p210
F-8.828136484194108
sS'thing'
p211
F-9.243173983472952
sS'length'
p212
F-9.828136484194108
sS'top'
p213
F-9.243173983472952
sS'user'
p214
F-9.828136484194108
sS'tennis'
p215
F-9.828136484194108
sS'features'
p216
F-9.828136484194108
sS'creamno'
p217
F-9.828136484194108
sS'owned'
p218
F-9.828136484194108
sS'one'
p219
F-8.828136484194108
sS'done'
p220
F-9.828136484194108
sS'long'
p221
F-9.828136484194108
sS'another'
p222
F-9.828136484194108
sS'reached'
p223
F-9.828136484194108
sS'thick'
p224
F-9.828136484194108
sS'clarity'
p225
F-9.243173983472952
sS'open'
p226
F-9.828136484194108
sS'size'
p227
F-8.828136484194108
sS'little'
p228
F-9.243173983472952
sS'publication'
p229
F-9.828136484194108
sS'octacore'
p230
F-9.828136484194108
sS'durable'
p231
F-9.828136484194108
sS'comfy'
p232
F-8.828136484194108
sS'plastic'
p233
F-8.828136484194108
sS'traction'
p234
F-9.828136484194108
sS'brilliantboth'
p235
F-9.828136484194108
sS'statement'
p236
F-9.828136484194108
sS'perfectly'
p237
F-9.243173983472952
sS'structures'
p238
F-9.828136484194108
sS'store'
p239
F-9.828136484194108
sS'gives'
p240
F-9.243173983472952
sS'option'
p241
F-9.828136484194108
sS'exactly'
p242
F-9.828136484194108
sS'released'
p243
F-9.828136484194108
sS'too'
p244
F-8.506208389306744
sS'blindly'
p245
F-9.243173983472952
sS'undoubtedly'
p246
F-9.828136484194108
sS'vocab'
p247
F-9.828136484194108
sS'loved'
p248
F-9.828136484194108
sS'rugged'
p249
F-9.828136484194108
sS'second'
p250
F-9.828136484194108
sS'packed'
p251
F-9.243173983472952
sS'preparation'
p252
F-9.828136484194108
sS'supposed'
p253
F-9.243173983472952
sS'iron'
p254
F-9.828136484194108
sS'were'
p255
F-9.828136484194108
sS'video'
p256
F-9.243173983472952
sS'fashion'
p257
F-9.828136484194108
sS'outstanding'
p258
F-9.243173983472952
sS'ram'
p259
F-9.828136484194108
sS'mind'
p260
F-9.828136484194108
sS'comfortable'
p261
F-7.020781562136503
sS'lovelyyyyyy'
p262
F-9.828136484194108
sS'these'
p263
F-9.828136484194108
sS'squat'
p264
F-9.828136484194108
sS'genuine'
p265
F-9.828136484194108
sS'built'
p266
F-9.828136484194108
sS'efficient'
p267
F-9.828136484194108
sS'mic'
p268
F-9.243173983472952
sS'-'
p269
I1
sS'purchasing'
p270
F-9.828136484194108
sS'note'
p271
F-9.828136484194108
sS'also'
p272
F-9.828136484194108
sS'ideal'
p273
F-9.243173983472952
sS'build'
p274
F-8.020781562136504
sS'performance'
p275
F-9.828136484194108
sS'though'
p276
F-8.828136484194108
sS'price'
p277
F-6.020781562136503
sS'most'
p278
F-9.828136484194108
sS'regular'
p279
F-9.828136484194108
sS'complaints'
p280
F-9.828136484194108
sS'extremely'
p281
F-9.828136484194108
sS'audio'
p282
F-9.828136484194108
sS'especially'
p283
F-9.828136484194108
sS'sturdy'
p284
F-9.243173983472952
sS'mobile'
p285
F-9.828136484194108
sS'average'
p286
F-9.828136484194108
sS'cover'
p287
F-9.243173983472952
sS'drive'
p288
F-8.24317398347295
sS'definitely'
p289
F-9.828136484194108
sS'charged'
p290
F-9.828136484194108
sS'microsoft'
p291
F-9.243173983472952
sS'hips'
p292
F-9.828136484194108
sS'shop'
p293
F-9.828136484194108
sS'impression'
p294
F-9.828136484194108
sS'walking'
p295
F-9.828136484194108
sS'bomb'
p296
F-9.828136484194108
sS'gold'
p297
F-9.828136484194108
sS'cheap'
p298
F-8.828136484194108
sS'bring'
p299
F-9.828136484194108
sS'colors'
p300
F-9.828136484194108
sS'shoe'
p301
F-9.243173983472952
sS'fine'
p302
F-9.828136484194108
sS'based'
p303
F-9.828136484194108
sS'knowledge'
p304
F-9.828136484194108
sS'title'
p305
F-9.828136484194108
sS'produces'
p306
F-9.828136484194108
sS'outside'
p307
F-9.828136484194108
sS'should'
p308
F-9.243173983472952
sS'buttons'
p309
F-9.828136484194108
sS'black'
p310
F-9.828136484194108
sS'pretty'
p311
F-9.243173983472952
sS'local'
p312
F-8.828136484194108
sS'laptop'
p313
F-9.828136484194108
sS'wearing'
p314
F-9.828136484194108
sS'awesomeif'
p315
F-9.828136484194108
sS'watching'
p316
F-9.828136484194108
sS'unbeatable'
p317
F-9.828136484194108
sS'overall'
p318
F-9.243173983472952
sS'expectation'
p319
F-9.828136484194108
sS'cheaper'
p320
F-9.828136484194108
sS'ones'
p321
F-9.828136484194108
sS'oneu'
p322
F-9.828136484194108
sS'cushion'
p323
F-9.828136484194108
sS'scrolling'
p324
F-9.828136484194108
sS'runs'
p325
F-9.828136484194108
sS'nicely'
p326
F-9.243173983472952
sS'bag'
p327
F-8.828136484194108
sS'bad'
p328
F-8.828136484194108
sS'stuff'
p329
F-9.828136484194108
sS'wish'
p330
F-9.828136484194108
sS'doubles'
p331
F-9.828136484194108
sS'finishing'
p332
F-9.828136484194108
sS'husband'
p333
F-9.828136484194108
sS'available'
p334
F-9.828136484194108
sS'set'
p335
F-8.828136484194108
sS'art'
p336
F-9.828136484194108
sS'fair'
p337
F-9.828136484194108
sS'sec'
p338
F-9.828136484194108
sS'close'
p339
F-9.828136484194108
sS'best'
p340
F-6.6582114827517955
sS'said'
p341
F-9.828136484194108
sS'expert'
p342
F-9.828136484194108
sS'wow'
p343
F-9.243173983472952
sS'superb'
p344
F-7.6582114827517955
sS'enough'
p345
F-9.243173983472952
sS'probably'
p346
F-9.828136484194108
sS'neither'
p347
F-9.828136484194108
sS'reading'
p348
F-9.828136484194108
sS'approach'
p349
F-9.828136484194108
sS'sold'
p350
F-9.828136484194108
sS'bought'
p351
F-8.828136484194108
sS'affordable'
p352
F-9.828136484194108
sS'exam'
p353
F-9.828136484194108
sS'screen'
p354
F-9.828136484194108
sS'however'
p355
F-9.828136484194108
sS'job'
p356
F-9.243173983472952
sS'wear'
p357
F-8.828136484194108
sS'swift'
p358
F-9.828136484194108
sS'both'
p359
F-9.828136484194108
sS'piece'
p360
F-9.828136484194108
sS'last'
p361
F-9.828136484194108
sS'taking'
p362
F-9.828136484194108
sS'amazing'
p363
F-7.36870486555681
sS'games'
p364
F-9.828136484194108
sS'disappointment'
p365
F-9.828136484194108
sS'comes'
p366
F-9.828136484194108
sS'load'
p367
F-9.828136484194108
sS'among'
p368
F-9.828136484194108
sS'liked'
p369
F-9.243173983472952
sS'point'
p370
F-9.243173983472952
sS'color'
p371
F-9.243173983472952
sS'seems'
p372
F-9.243173983472952
sS'jeans'
p373
F-9.243173983472952
sS'whatever'
p374
F-9.828136484194108
sS'packaging'
p375
F-9.828136484194108
sS'simply'
p376
F-8.828136484194108
sS'stretched'
p377
F-9.828136484194108
sS'expensive'
p378
F-9.828136484194108
sS'awsome'
p379
F-9.828136484194108
sS'stretch'
p380
F-9.243173983472952
sS'decent'
p381
F-9.828136484194108
sS'fro'
p382
F-9.828136484194108
sS'been'
p383
F-8.24317398347295
sS'much'
p384
F-9.243173983472952
sS'expected'
p385
F-8.24317398347295
sS'hardly'
p386
F-9.828136484194108
sS'finishes'
p387
F-9.828136484194108
sS'received'
p388
F-9.828136484194108
sS'blessing'
p389
F-9.828136484194108
sS'precision'
p390
F-9.828136484194108
sS'else'
p391
F-9.828136484194108
sS'lives'
p392
F-9.243173983472952
sS'worked'
p393
F-8.828136484194108
sS'those'
p394
F-9.828136484194108
sS'sound'
p395
F-8.828136484194108
sS'utmost'
p396
F-9.828136484194108
sS'solid'
p397
F-9.243173983472952
sS'reliable'
p398
F-9.828136484194108
sS'appearance'
p399
F-9.828136484194108
sS'budget'
p400
F-8.24317398347295
sS'value'
p401
F-7.243173983472951
sS'n'
p402
F-9.828136484194108
sS'while'
p403
F-8.828136484194108
sS'smart'
p404
F-9.243173983472952
sS'policies'
p405
F-9.828136484194108
sS'voice'
p406
F-9.243173983472952
sS'ive'
p407
F-8.828136484194108
sS'almost'
p408
F-9.828136484194108
sS'it'
p409
F-7.506208389306745
sS'im'
p410
F-9.243173983472952
sS'lightweight'
p411
F-9.828136484194108
sS'bucks'
p412
F-9.828136484194108
sS'mouse'
p413
F-8.506208389306744
sS'everyday'
p414
F-9.828136484194108
sS'trusted'
p415
F-9.828136484194108
sS'duoght'
p416
F-9.828136484194108
sS'make'
p417
F-9.243173983472952
sS'amount'
p418
F-9.828136484194108
sS'same'
p419
F-9.828136484194108
sS'motorolaso'
p420
F-9.828136484194108
sS'android'
p421
F-9.828136484194108
sS'gets'
p422
F-8.828136484194108
sS'week'
p423
F-9.828136484194108
sS'yesterday'
p424
F-9.828136484194108
sS'hand'
p425
F-9.828136484194108
sS'moment'
p426
F-9.828136484194108
sS'uses'
p427
F-9.828136484194108
sS'purpose'
p428
F-9.828136484194108
sS'dust'
p429
F-9.828136484194108
sS'robust'
p430
F-9.243173983472952
sS'totally'
p431
F-9.828136484194108
sS'awesomeness'
p432
F-9.828136484194108
sS'off'
p433
F-9.828136484194108
sS'charges'
p434
F-9.243173983472952
sS'charger'
p435
F-8.506208389306744
sS'colour'
p436
F-9.828136484194108
sS'no'
p437
F-6.828136484194107
sS'well'
p438
F-8.506208389306744
sS'anybody'
p439
F-9.243173983472952
sS'obviously'
p440
F-9.828136484194108
sS'thought'
p441
F-9.828136484194108
sS'very'
p442
F-5.5802089707505225
sS'claims'
p443
F-9.828136484194108
sS'the'
p444
F-9.828136484194108
sS'jbl'
p445
F-8.828136484194108
sS'justify'
p446
F-9.828136484194108
sS'less'
p447
F-9.243173983472952
sS'being'
p448
F-9.828136484194108
sS'money'
p449
F-6.828136484194107
sS'armour'
p450
F-9.828136484194108
sS'competitive'
p451
F-9.828136484194108
sS'disguise'
p452
F-9.828136484194108
sS'world'
p453
F-9.828136484194108
sS'touch'
p454
F-9.828136484194108
sS'useful'
p455
F-9.243173983472952
sS'yes'
p456
F-9.828136484194108
sS'speed'
p457
F-9.243173983472952
sS'buyers'
p458
F-9.828136484194108
sS'had'
p459
F-9.243173983472952
sS'fitting'
p460
F-9.828136484194108
sS'modelsbrands'
p461
F-9.828136484194108
sS'governmental'
p462
F-9.828136484194108
sS'book'
p463
F-7.36870486555681
sS'attractive'
p464
F-9.243173983472952
sS'easy'
p465
F-9.828136484194108
sS'has'
p466
F-9.243173983472952
sS'kick'
p467
F-9.828136484194108
sS'grip'
p468
F-9.828136484194108
sS'around'
p469
F-9.828136484194108
sS'read'
p470
F-9.828136484194108
sS'big'
p471
F-9.828136484194108
sS'possibly'
p472
F-9.828136484194108
sS'know'
p473
F-9.828136484194108
sS'listening'
p474
F-9.828136484194108
sS'using'
p475
F-8.020781562136504
sS'rear'
p476
F-9.828136484194108
sS'helpful'
p477
F-9.828136484194108
sS'necessary'
p478
F-9.828136484194108
sS'like'
p479
F-7.6582114827517955
sS'vibrant'
p480
F-9.243173983472952
sS'glove'
p481
F-9.828136484194108
sS'either'
p482
F-9.828136484194108
sS'fully'
p483
F-8.24317398347295
sS'works'
p484
F-8.020781562136504
sS'soft'
p485
F-9.243173983472952
sS'satisfactory'
p486
F-8.506208389306744
sS'right'
p487
F-9.828136484194108
sS'deal'
p488
F-9.243173983472952
sS'people'
p489
F-9.828136484194108
sS'absolutely'
p490
F-9.243173983472952
sS'quicklyim'
p491
F-9.828136484194108
sS'searching'
p492
F-9.243173983472952
sS'delivered'
p493
F-9.243173983472952
sS'for'
p494
F-9.243173983472952
sS'pen'
p495
F-8.24317398347295
sS'does'
p496
F-9.243173983472952
sS'provides'
p497
F-9.243173983472952
sS'thighs'
p498
F-9.828136484194108
sS'cord'
p499
F-9.243173983472952
sS'be'
p500
F-9.828136484194108
sS'blowing'
p501
F-9.828136484194108
sS'scientific'
p502
F-9.828136484194108
sS'power'
p503
F-9.828136484194108
sS'slight'
p504
F-9.828136484194108
sS'manufacturing'
p505
F-9.828136484194108
sS'super'
p506
F-8.828136484194108
sS'crafting'
p507
F-9.828136484194108
sS'ok'
p508
F-9.828136484194108
sS'months'
p509
F-9.243173983472952
sS'favorite'
p510
F-9.828136484194108
sS'remains'
p511
F-9.828136484194108
sS'range'
p512
F-8.828136484194108
sS'stand'
p513
F-9.243173983472952
sS'masterpieces'
p514
F-9.828136484194108
sS'slightly'
p515
F-9.828136484194108
sS'processor'
p516
F-9.828136484194108
sS'recommended'
p517
F-8.24317398347295
sS'treble'
p518
F-9.828136484194108
sS'researching'
p519
F-9.828136484194108
sS'within'
p520
F-9.828136484194108
sS'functional'
p521
F-9.828136484194108
sS'headphone'
p522
F-8.828136484194108
sS'nothing'
p523
F-9.828136484194108
sS'doesnt'
p524
F-9.243173983472952
sS'balanced'
p525
F-9.243173983472952
sS'bercuda'
p526
F-9.828136484194108
sS'area'
p527
F-9.828136484194108
sS'spending'
p528
F-9.828136484194108
sS'transfer'
p529
F-9.828136484194108
sS'smoothly'
p530
F-9.828136484194108
sS'fast'
p531
F-7.828136484194107
sS'start'
p532
F-9.828136484194108
sS'camera'
p533
F-9.828136484194108
sS'lot'
p534
F-9.828136484194108
sS'call'
p535
F-9.828136484194108
sS'on-line'
p536
F-9.828136484194108
sS'happy'
p537
F-7.6582114827517955
sS'buy'
p538
F-6.6582114827517955
sS'battery'
p539
F-9.828136484194108
sS'complete'
p540
F-9.828136484194108
sS'form'
p541
F-9.828136484194108
sS'brand'
p542
F-9.243173983472952
sS'recommend'
p543
F-9.828136484194108
sS'value-for-money'
p544
F-9.828136484194108
sS'preparations'
p545
F-9.828136484194108
sS'delivery'
p546
F-8.24317398347295
sS'buying'
p547
F-8.828136484194108
sS'made'
p548
F-9.243173983472952
sS'type'
p549
F-9.828136484194108
sS'inside'
p550
F-9.828136484194108
sS'smooth'
p551
F-9.828136484194108
sS'flip'
p552
F-9.243173983472952
sS'devices'
p553
F-9.828136484194108
sS'earheadphones'
p554
F-9.828136484194108
sS'problem'
p555
F-8.24317398347295
sS'pendrive'
p556
F-9.243173983472952
sS'display'
p557
F-9.828136484194108
sS'promises'
p558
F-9.828136484194108
sS'ordered'
p559
F-9.828136484194108
sS'sale'
p560
F-9.828136484194108
sS'file'
p561
F-9.828136484194108
sS'kidney'
p562
F-9.828136484194108
sS'again'
p563
F-9.243173983472952
sS'shounld'
p564
F-9.828136484194108
sS'hasnt'
p565
F-9.828136484194108
sS'skullcandy'
p566
F-9.828136484194108
sS'incredible'
p567
F-9.828136484194108
sS'not'
p568
F-6.828136484194107
sS'reality'
p569
F-9.828136484194108
sS'gre'
p570
F-9.828136484194108
sS'details'
p571
F-9.828136484194108
sS'vscroll'
p572
F-9.828136484194108
sS'downlaod'
p573
F-9.828136484194108
sS'nice'
p574
F-6.435819061415348
sS'users'
p575
F-9.828136484194108
sS'problems'
p576
F-9.828136484194108
sS'polity'
p577
F-9.828136484194108
sS'important'
p578
F-9.828136484194108
sS'earphones'
p579
F-9.243173983472952
sS'missed'
p580
F-9.828136484194108
sS'philips'
p581
F-9.828136484194108
sS'itaffordable'
p582
F-9.828136484194108
sS'notch'
p583
F-9.243173983472952
sS'faster'
p584
F-8.828136484194108
sS'samsung'
p585
F-9.243173983472952
sS'required'
p586
F-9.828136484194108
sS'daily'
p587
F-9.828136484194108
sS'original'
p588
F-8.828136484194108
sS'u'
p589
F-8.828136484194108
sS'time'
p590
F-7.6582114827517955
sS'push'
p591
F-9.828136484194108
sS'understand'
p592
F-9.828136484194108
sS'having'
p593
F-8.828136484194108
s.