(dp0
S'money'
p1
F-5.9734582125475075
sS'excellent'
p2
F-5.751065791211061
sS'cheap'
p3
F-7.5584207132686645
sS'liked'
p4
F-7.5584207132686645
sS'foot'
p5
F-7.5584207132686645
sS'thanks'
p6
F-7.5584207132686645
sS'tough'
p7
F-7.5584207132686645
sS'yes'
p8
F-7.5584207132686645
sS'superb'
p9
F-7.5584207132686645
sS'fine'
p10
F-7.5584207132686645
sS'find'
p11
F-7.5584207132686645
sS'perfect'
p12
F-7.5584207132686645
sS'much'
p13
F-7.5584207132686645
sS'had'
p14
F-7.5584207132686645
sS'expectations'
p15
F-7.5584207132686645
sS'unhappy'
p16
F-7.5584207132686645
sS'simple'
p17
F-6.973458212547508
sS'easy'
p18
F-6.973458212547508
sS'local'
p19
F-7.5584207132686645
sS'excited'
p20
F-7.5584207132686645
sS'sews'
p21
F-7.5584207132686645
sS'good'
p22
F-4.166103290489905
sS'vendor'
p23
F-7.5584207132686645
sS'around'
p24
F-7.5584207132686645
sS'beat'
p25
F-7.5584207132686645
sS'satisfied'
p26
F-6.5584207132686645
sS'feels'
p27
F-7.5584207132686645
sS'not'
p28
F-6.5584207132686645
sS'highly'
p29
F-6.973458212547508
sS'cool'
p30
F-7.5584207132686645
sS'easily'
p31
F-7.5584207132686645
sS'like'
p32
F-6.973458212547508
sS'cable'
p33
F-7.5584207132686645
sS'trimmer'
p34
F-7.5584207132686645
sS'nicely'
p35
F-7.5584207132686645
sS'ever'
p36
F-7.5584207132686645
sS'reasonably'
p37
F-7.5584207132686645
sS'did'
p38
F-7.5584207132686645
sS'bad'
p39
F-7.5584207132686645
sS'stuff'
p40
F-7.5584207132686645
sS'either'
p41
F-7.5584207132686645
sS'fully'
p42
F-7.5584207132686645
sS'simply'
p43
F-7.5584207132686645
sS'havent'
p44
F-7.5584207132686645
sS'works'
p45
F-5.751065791211061
sS'satisfactory'
p46
F-7.5584207132686645
sS'old'
p47
F-7.5584207132686645
sS'beginner'
p48
F-7.5584207132686645
sS'absolutely'
p49
F-7.5584207132686645
sS'product'
p50
F-4.166103290489905
sS'best'
p51
F-6.236492618381302
sS'really'
p52
F-6.5584207132686645
sS'excelent'
p53
F-7.5584207132686645
sS'delivered'
p54
F-7.5584207132686645
sS'wire'
p55
F-7.5584207132686645
sS'dinosaur'
p56
F-7.5584207132686645
sS'its'
p57
F-7.5584207132686645
sS'above'
p58
F-7.5584207132686645
sS'boost'
p59
F-7.5584207132686645
sS'useful'
p60
F-6.5584207132686645
sS'joy'
p61
F-7.5584207132686645
sS'met'
p62
F-7.5584207132686645
sS'job'
p63
F-7.5584207132686645
sS'intermediate'
p64
F-7.5584207132686645
sS'card'
p65
F-6.973458212547508
sS'great'
p66
F-4.3884957118263515
sS'working'
p67
F-5.9734582125475075
sS'magazine'
p68
F-6.5584207132686645
sS'recommended'
p69
F-7.5584207132686645
sS'fantastic'
p70
F-7.5584207132686645
sS'love'
p71
F-7.5584207132686645
sS'battery'
p72
F-7.5584207132686645
sS'one'
p73
F-6.973458212547508
sS'done'
p74
F-7.5584207132686645
sS'reached'
p75
F-7.5584207132686645
sS'quality'
p76
F-5.751065791211061
sS'little'
p77
F-7.5584207132686645
sS'described'
p78
F-7.5584207132686645
sS'deal'
p79
F-6.973458212547508
sS'service'
p80
F-6.973458212547508
sS'decent'
p81
F-7.5584207132686645
sS'durable'
p82
F-7.5584207132686645
sS'fast'
p83
F-7.5584207132686645
sS'anyone'
p84
F-7.5584207132686645
sS'pc'
p85
F-7.5584207132686645
sS'camera'
p86
F-6.973458212547508
sS'recommend'
p87
F-6.5584207132686645
sS'expected'
p88
F-6.5584207132686645
sS'perfectly'
p89
F-6.973458212547508
sS'type'
p90
F-7.5584207132686645
sS'happy'
p91
F-6.5584207132686645
sS'life'
p92
F-7.5584207132686645
sS'configure'
p93
F-7.5584207132686645
sS'priced'
p94
F-7.5584207132686645
sS'graphics'
p95
F-7.5584207132686645
sS'worked'
p96
F-6.973458212547508
sS'waist'
p97
F-7.5584207132686645
sS'loved'
p98
F-6.973458212547508
sS'made'
p99
F-7.5584207132686645
sS'setup'
p100
F-7.5584207132686645
sS'value'
p101
F-6.973458212547508
sS'worth'
p102
F-6.973458212547508
sS'planet'
p103
F-7.5584207132686645
sS'problem'
p104
F-7.5584207132686645
sS'pack'
p105
F-7.5584207132686645
sS'outstanding'
p106
F-7.5584207132686645
sS'awesome'
p107
F-6.5584207132686645
sS'ages'
p108
F-7.5584207132686645
sS'it'
p109
F-6.236492618381302
sS'comfortable'
p110
F-6.973458212547508
sS'needs'
p111
F-7.5584207132686645
sS'no'
p112
F-6.973458212547508
sS'amount'
p113
F-7.5584207132686645
sS'machine'
p114
F-6.5584207132686645
sS'far'
p115
F-6.973458212547508
sS'amazing'
p116
F-7.5584207132686645
sS'build'
p117
F-7.5584207132686645
sS'performance'
p118
F-6.5584207132686645
sS'gets'
p119
F-7.5584207132686645
sS'nice'
p120
F-5.9734582125475075
sS'lan'
p121
F-7.5584207132686645
sS'used'
p122
F-7.5584207132686645
sS'users'
p123
F-7.5584207132686645
sS'though'
p124
F-7.5584207132686645
sS'price'
p125
F-5.751065791211061
sS'time'
p126
F-6.5584207132686645
sS'problems'
p127
F-6.973458212547508
sS'arrived'
p128
F-7.5584207132686645
sS'plenty'
p129
F-7.5584207132686645
sS'such'
p130
F-7.5584207132686645
sS'truly'
p131
F-7.5584207132686645
sS'extremely'
p132
F-7.5584207132686645
sS'totally'
p133
F-7.5584207132686645
sS'purchase'
p134
F-7.5584207132686645
sS'faster'
p135
F-7.5584207132686645
sS'sturdy'
p136
F-7.5584207132686645
sS'space'
p137
F-7.5584207132686645
sS'well'
p138
F-7.5584207132686645
sS'daily'
p139
F-7.5584207132686645
sS'sawing'
p140
F-7.5584207132686645
sS'very'
p141
F-4.857980995127573
sS'ethernet'
p142
F-7.5584207132686645
s.