(dp0
S'n\n'
p1
F-10.975847968006786
sS'all'
p2
F-9.975847968006786
sS'code'
p3
F-9.975847968006786
sS'todays'
p4
F-9.975847968006786
sS'wire'
p5
F-9.975847968006786
sS'chinese'
p6
F-8.653919873119422
sS'switched'
p7
F-8.653919873119422
sS'caused'
p8
F-9.975847968006786
sS'lack'
p9
F-9.975847968006786
sS'focus'
p10
F-9.975847968006786
sS'blisters'
p11
F-9.975847968006786
sS'month'
p12
F-7.975847968006785
sS'leads'
p13
F-9.975847968006786
sS'working\n'
p14
F-10.975847968006786
sS'gb'
p15
F-9.39088546728563
sS'hanging'
p16
F-8.653919873119422
sS'isnt\n'
p17
F-10.975847968006786
sS'last\n'
p18
F-10.975847968006786
sS'shows\n'
p19
F-10.975847968006786
sS'shipped\n'
p20
F-10.975847968006786
sS'issues'
p21
F-8.168493045949182
sS'poorly'
p22
F-9.39088546728563
sS'productwant'
p23
F-9.975847968006786
sS'happy\n'
p24
F-10.975847968006786
sS'wont\n'
p25
F-10.975847968006786
sS'comfort\n'
p26
F-10.975847968006786
sS'almost\n'
p27
F-10.975847968006786
sS'flash'
p28
F-9.975847968006786
sS'mp\n'
p29
F-10.975847968006786
sS'disgusting'
p30
F-9.975847968006786
sS'redmi'
p31
F-9.975847968006786
sS'charge'
p32
F-9.39088546728563
sS'drive\n'
p33
F-10.975847968006786
sS'dissatisfied'
p34
F-9.975847968006786
sS'pictures\n'
p35
F-10.975847968006786
sS'deal\n'
p36
F-10.975847968006786
sS'ever\n'
p37
F-10.975847968006786
sS'sorry'
p38
F-9.39088546728563
sS'nothing\n'
p39
F-10.975847968006786
sS'anybody\n'
p40
F-10.975847968006786
sS'worth'
p41
F-9.975847968006786
sS'sent'
p42
F-9.975847968006786
sS'customer'
p43
F-8.975847968006786
sS'poor\n'
p44
F-10.975847968006786
sS'returned'
p45
F-9.39088546728563
sS'very'
p46
F-5.888385126756446
sS'gb\n'
p47
F-10.975847968006786
sS'problems\n'
p48
F-10.975847968006786
sS'hard\n'
p49
F-10.975847968006786
sS'point\n'
p50
F-10.975847968006786
sS'sloppy'
p51
F-9.975847968006786
sS'slot\n'
p52
F-10.975847968006786
sS'every'
p53
F-9.975847968006786
sS'yellow'
p54
F-9.39088546728563
sS'clarity\n'
p55
F-10.975847968006786
sS'cheap\n'
p56
F-10.975847968006786
sS'awful'
p57
F-9.975847968006786
sS'sony'
p58
F-8.39088546728563
sS'soles'
p59
F-9.975847968006786
sS'condition'
p60
F-9.975847968006786
sS'cool'
p61
F-9.975847968006786
sS'make\n'
p62
F-10.975847968006786
sS'small\n'
p63
F-10.975847968006786
sS'cable'
p64
F-9.39088546728563
sS'gud'
p65
F-9.975847968006786
sS'did'
p66
F-8.653919873119422
sS'sensor'
p67
F-9.975847968006786
sS'playing\n'
p68
F-10.975847968006786
sS'brother'
p69
F-9.39088546728563
sS'travels'
p70
F-9.975847968006786
sS'item'
p71
F-8.975847968006786
sS'totally\n'
p72
F-10.975847968006786
sS'screen\n'
p73
F-10.975847968006786
sS'small'
p74
F-9.975847968006786
sS'extremely\n'
p75
F-10.975847968006786
sS'attractive\n'
p76
F-10.975847968006786
sS'today\n'
p77
F-10.975847968006786
sS'more\n'
p78
F-10.975847968006786
sS'dis'
p79
F-9.975847968006786
sS'unsatisfied'
p80
F-9.975847968006786
sS'slow'
p81
F-8.653919873119422
sS'htc'
p82
F-8.39088546728563
sS'regret'
p83
F-9.975847968006786
sS'poorly\n'
p84
F-10.975847968006786
sS'suggest\n'
p85
F-10.975847968006786
sS'bang\n'
p86
F-10.975847968006786
sS'past'
p87
F-8.975847968006786
sS'second'
p88
F-9.39088546728563
sS'cost'
p89
F-9.975847968006786
sS'design'
p90
F-9.975847968006786
sS'download'
p91
F-9.975847968006786
sS'run'
p92
F-9.975847968006786
sS'click'
p93
F-9.975847968006786
sS'support\n'
p94
F-10.975847968006786
sS'headset'
p95
F-9.975847968006786
sS'sennheiser'
p96
F-9.975847968006786
sS'expectations\n'
p97
F-10.975847968006786
sS'has\n'
p98
F-10.975847968006786
sS'range\n'
p99
F-10.975847968006786
sS'+'
p100
I1
sS'while'
p101
F-8.653919873119422
sS'else\n'
p102
F-10.975847968006786
sS'me\n'
p103
F-10.975847968006786
sS'access'
p104
F-9.975847968006786
sS'vibrant\n'
p105
F-10.975847968006786
sS'volume\n'
p106
F-10.975847968006786
sS'should\n'
p107
F-10.975847968006786
sS'new'
p108
F-8.975847968006786
sS'tips'
p109
F-9.975847968006786
sS'ever'
p110
F-7.805922966564473
sS'protection\n'
p111
F-10.975847968006786
sS'tag\n'
p112
F-10.975847968006786
sS'china\n'
p113
F-10.975847968006786
sS'satisfy'
p114
F-9.975847968006786
sS'slot'
p115
F-9.39088546728563
sS'full'
p116
F-8.975847968006786
sS'led'
p117
F-9.975847968006786
sS'hdmi'
p118
F-9.975847968006786
sS'light\n'
p119
F-10.975847968006786
sS'shown\n'
p120
F-10.975847968006786
sS'worst\n'
p121
F-10.975847968006786
sS'never'
p122
F-8.168493045949182
sS'worse\n'
p123
F-10.975847968006786
sS'here'
p124
F-9.39088546728563
sS'defective\n'
p125
F-10.975847968006786
sS'hours'
p126
F-8.975847968006786
sS'met'
p127
F-9.975847968006786
sS'packing'
p128
F-9.975847968006786
sS'protection'
p129
F-9.975847968006786
sS'china'
p130
F-9.39088546728563
sS'robust\n'
p131
F-10.975847968006786
sS'address'
p132
F-9.975847968006786
sS'active'
p133
F-9.975847968006786
sS'sandisk'
p134
F-9.975847968006786
sS'microsoft\n'
p135
F-10.975847968006786
sS'change'
p136
F-9.39088546728563
sS'wait'
p137
F-9.975847968006786
sS'great'
p138
F-9.39088546728563
sS'off\n'
p139
F-10.975847968006786
sS'micromax'
p140
F-9.975847968006786
sS'machine\n'
p141
F-10.975847968006786
sS'receive'
p142
F-9.975847968006786
sS'k'
p143
F-9.975847968006786
sS'changed'
p144
F-9.975847968006786
sS'display\n'
p145
F-10.975847968006786
sS'no-no'
p146
F-9.975847968006786
sS'experience'
p147
F-8.975847968006786
sS'pics'
p148
F-9.975847968006786
sS'requesting'
p149
F-9.975847968006786
sS'same\n'
p150
F-10.975847968006786
sS'products'
p151
F-9.39088546728563
sS'budget\n'
p152
F-10.975847968006786
sS'uses\n'
p153
F-10.975847968006786
sS'makes'
p154
F-9.975847968006786
sS'options'
p155
F-9.975847968006786
sS'always\n'
p156
F-10.975847968006786
sS'itll'
p157
F-9.975847968006786
sS'useful'
p158
F-9.975847968006786
sS'apple'
p159
F-9.975847968006786
sS'mouse\n'
p160
F-10.975847968006786
sS'suddenly'
p161
F-9.975847968006786
sS'octacore\n'
p162
F-10.975847968006786
sS'app'
p163
F-9.975847968006786
sS'lots\n'
p164
F-10.975847968006786
sS'prefer'
p165
F-9.975847968006786
sS'value\n'
p166
F-10.975847968006786
sS'highly'
p167
F-8.975847968006786
sS'visible'
p168
F-9.975847968006786
sS'original\n'
p169
F-10.975847968006786
sS'fake'
p170
F-8.653919873119422
sS'around\n'
p171
F-10.975847968006786
sS'pendrive\n'
p172
F-10.975847968006786
sS'better\n'
p173
F-10.975847968006786
sS'right\n'
p174
F-10.975847968006786
sS'use'
p175
F-8.975847968006786
sS'crap'
p176
F-9.39088546728563
sS'takes'
p177
F-9.39088546728563
sS'working'
p178
F-7.068957372398266
sS'gameplay'
p179
F-9.975847968006786
sS'opt\n'
p180
F-10.975847968006786
sS'hanging\n'
p181
F-10.975847968006786
sS'few'
p182
F-8.975847968006786
sS'duplicate'
p183
F-8.653919873119422
sS'camera'
p184
F-7.653919873119423
sS'call'
p185
F-9.39088546728563
sS'opposed'
p186
F-9.975847968006786
sS'simple\n'
p187
F-10.975847968006786
sS'memory'
p188
F-8.39088546728563
sS'know\n'
p189
F-10.975847968006786
sS'until'
p190
F-9.975847968006786
sS'today'
p191
F-8.653919873119422
sS'more'
p192
F-7.975847968006785
sS'decent\n'
p193
F-10.975847968006786
sS'certainly\n'
p194
F-10.975847968006786
sS'seller\n'
p195
F-10.975847968006786
sS'started'
p196
F-9.39088546728563
sS'site'
p197
F-9.975847968006786
sS'big\n'
p198
F-10.975847968006786
sS'phone'
p199
F-6.888385126756446
sS'normal\n'
p200
F-10.975847968006786
sS'scratches'
p201
F-9.975847968006786
sS'htc\n'
p202
F-10.975847968006786
sS'take\n'
p203
F-10.975847968006786
sS'online\n'
p204
F-10.975847968006786
sS'must'
p205
F-9.975847968006786
sS'me'
p206
F-9.975847968006786
sS'states'
p207
F-9.975847968006786
sS'keeping'
p208
F-9.39088546728563
sS'ahead\n'
p209
F-10.975847968006786
sS'soft\n'
p210
F-10.975847968006786
sS'this'
p211
F-7.975847968006785
sS'xioami'
p212
F-9.975847968006786
sS'work'
p213
F-8.168493045949182
sS'sucks'
p214
F-9.975847968006786
sS'cant'
p215
F-8.975847968006786
sS'reviews'
p216
F-9.39088546728563
sS'dialer'
p217
F-9.975847968006786
sS'arrangements'
p218
F-9.975847968006786
sS'mp'
p219
F-8.975847968006786
sS'following'
p220
F-9.975847968006786
sS'drops'
p221
F-9.975847968006786
sS'didnt'
p222
F-9.39088546728563
sS'history'
p223
F-9.975847968006786
sS'bank\n'
p224
F-10.975847968006786
sS'prompt'
p225
F-9.975847968006786
sS'best\n'
p226
F-10.975847968006786
sS'process'
p227
F-9.975847968006786
sS'awesome'
p228
F-9.975847968006786
sS'hours\n'
p229
F-10.975847968006786
sS'terrible'
p230
F-9.975847968006786
sS'high'
p231
F-9.39088546728563
sS'tag'
p232
F-9.975847968006786
sS'dropped'
p233
F-9.975847968006786
sS'purchased'
p234
F-9.39088546728563
sS'sharp'
p235
F-9.975847968006786
sS'ok\n'
p236
F-10.975847968006786
sS'disliked'
p237
F-9.975847968006786
sS'occur'
p238
F-9.975847968006786
sS'absolute'
p239
F-9.975847968006786
sS'huge'
p240
F-9.975847968006786
sS'united'
p241
F-9.975847968006786
sS'defective'
p242
F-8.975847968006786
sS'material\n'
p243
F-10.975847968006786
sS'rather'
p244
F-9.975847968006786
sS'mode\n'
p245
F-10.975847968006786
sS'purpose'
p246
F-9.975847968006786
sS'genuine\n'
p247
F-10.975847968006786
sS'off'
p248
F-8.653919873119422
sS'far\n'
p249
F-10.975847968006786
sS'machine'
p250
F-9.39088546728563
sS'till'
p251
F-9.975847968006786
sS'high\n'
p252
F-10.975847968006786
sS'camera\n'
p253
F-10.975847968006786
sS'faulty'
p254
F-9.39088546728563
sS'charging'
p255
F-8.653919873119422
sS'sim'
p256
F-9.39088546728563
sS'product\n'
p257
F-10.975847968006786
sS'gaming'
p258
F-9.975847968006786
sS'product'
p259
F-5.093204918644943
sS'okay'
p260
F-9.39088546728563
sS'description'
p261
F-9.39088546728563
sS'crashes'
p262
F-9.975847968006786
sS'fit\n'
p263
F-10.975847968006786
sS'may'
p264
F-9.975847968006786
sS'taking\n'
p265
F-10.975847968006786
sS'lag'
p266
F-9.975847968006786
sS'space'
p267
F-9.975847968006786
sS'damaged'
p268
F-8.39088546728563
sS'excellent\n'
p269
F-10.975847968006786
sS'disgusted'
p270
F-9.975847968006786
sS'received\n'
p271
F-10.975847968006786
sS'overall\n'
p272
F-10.975847968006786
sS'its\n'
p273
F-10.975847968006786
sS'outside\n'
p274
F-10.975847968006786
sS'date'
p275
F-9.39088546728563
sS'such'
p276
F-9.975847968006786
sS'need\n'
p277
F-10.975847968006786
sS'unacceptable'
p278
F-9.975847968006786
sS'memory\n'
p279
F-10.975847968006786
sS'times'
p280
F-9.975847968006786
sS'purchase'
p281
F-7.975847968006785
sS'waist'
p282
F-9.975847968006786
sS'never\n'
p283
F-10.975847968006786
sS'whenever'
p284
F-9.975847968006786
sS'light'
p285
F-8.975847968006786
sS'item\n'
p286
F-10.975847968006786
sS'switched\n'
p287
F-10.975847968006786
sS'amazon\n'
p288
F-10.975847968006786
sS'purpose\n'
p289
F-10.975847968006786
sS'allow'
p290
F-9.975847968006786
sS'products\n'
p291
F-10.975847968006786
sS'purchase\n'
p292
F-10.975847968006786
sS'worst'
p293
F-6.805922966564472
sS'playing'
p294
F-8.975847968006786
sS'sd'
p295
F-8.653919873119422
sS'fifa'
p296
F-9.39088546728563
sS'shoes'
p297
F-9.39088546728563
sS'months\n'
p298
F-10.975847968006786
sS'satisfied'
p299
F-9.39088546728563
sS'already\n'
p300
F-10.975847968006786
sS'did\n'
p301
F-10.975847968006786
sS'symbols'
p302
F-9.975847968006786
sS'isnt'
p303
F-9.39088546728563
sS'paper'
p304
F-9.975847968006786
sS'looks'
p305
F-8.975847968006786
sS'perfectly\n'
p306
F-10.975847968006786
sS'really\n'
p307
F-10.975847968006786
sS'absolutely\n'
p308
F-10.975847968006786
sS'full\n'
p309
F-10.975847968006786
sS'kept\n'
p310
F-10.975847968006786
sS'its'
p311
F-8.168493045949182
sS'galaxy'
p312
F-9.975847968006786
sS'before'
p313
F-9.975847968006786
sS'weeki'
p314
F-9.975847968006786
sS'hardly\n'
p315
F-10.975847968006786
sS'no\n'
p316
F-10.975847968006786
sS'below\n'
p317
F-10.975847968006786
sS'them\n'
p318
F-10.975847968006786
sS'better'
p319
F-8.653919873119422
sS'wrt'
p320
F-9.975847968006786
sS'parts'
p321
F-8.975847968006786
sS'wow\n'
p322
F-10.975847968006786
sS'superb\n'
p323
F-10.975847968006786
sS'speech'
p324
F-9.975847968006786
sS'weeks'
p325
F-9.975847968006786
sS'main'
p326
F-9.39088546728563
sS'looks\n'
p327
F-10.975847968006786
sS'ears\n'
p328
F-10.975847968006786
sS'chinese\n'
p329
F-10.975847968006786
sS'hurting'
p330
F-9.975847968006786
sS'good'
p331
F-6.068957372398266
sS'return'
p332
F-9.39088546728563
sS'fine\n'
p333
F-10.975847968006786
sS'fully\n'
p334
F-10.975847968006786
sS'auto'
p335
F-9.975847968006786
sS'material'
p336
F-9.39088546728563
sS'system\n'
p337
F-10.975847968006786
sS'all\n'
p338
F-10.975847968006786
sS'touching'
p339
F-9.975847968006786
sS'expectation\n'
p340
F-10.975847968006786
sS'effects'
p341
F-9.975847968006786
sS'not'
p342
F-4.653919873119422
sS'now'
p343
F-9.975847968006786
sS'trusted\n'
p344
F-10.975847968006786
sS'complain'
p345
F-9.975847968006786
sS'bank'
p346
F-8.975847968006786
sS'wont'
p347
F-8.975847968006786
sS'little\n'
p348
F-10.975847968006786
sS'it\n'
p349
F-10.975847968006786
sS'reformatted'
p350
F-9.975847968006786
sS'trimmer'
p351
F-9.975847968006786
sS'always'
p352
F-9.975847968006786
sS'within\n'
p353
F-10.975847968006786
sS'stiff'
p354
F-9.975847968006786
sS'packing\n'
p355
F-10.975847968006786
sS'capability'
p356
F-9.975847968006786
sS'micro'
p357
F-9.975847968006786
sS'cell\n'
p358
F-10.975847968006786
sS'stopped'
p359
F-9.39088546728563
sS'mode'
p360
F-8.653919873119422
sS'found'
p361
F-9.975847968006786
sS'shoe\n'
p362
F-10.975847968006786
sS'side'
p363
F-8.653919873119422
sS'heavy'
p364
F-9.975847968006786
sS'made\n'
p365
F-10.975847968006786
sS'yes\n'
p366
F-10.975847968006786
sS'different\n'
p367
F-10.975847968006786
sS'hard'
p368
F-8.975847968006786
sS'ea'
p369
F-9.975847968006786
sS'dongle'
p370
F-9.975847968006786
sS'job\n'
p371
F-10.975847968006786
sS'headphone\n'
p372
F-10.975847968006786
sS'connect'
p373
F-9.975847968006786
sS'time\n'
p374
F-10.975847968006786
sS'irritation'
p375
F-9.975847968006786
sS'non-functional'
p376
F-9.975847968006786
sS'purchased\n'
p377
F-10.975847968006786
sS'special'
p378
F-9.975847968006786
sS'really'
p379
F-8.39088546728563
sS'got\n'
p380
F-10.975847968006786
sS'try'
p381
F-9.975847968006786
sS'shown'
p382
F-9.39088546728563
sS'opened'
p383
F-8.975847968006786
sS'solved'
p384
F-9.975847968006786
sS'quality'
p385
F-6.021651657619909
sS'since'
p386
F-8.975847968006786
sS'karbonn'
p387
F-9.975847968006786
sS'shelling'
p388
F-9.975847968006786
sS'parts\n'
p389
F-10.975847968006786
sS'looking'
p390
F-9.39088546728563
sS'got'
p391
F-8.168493045949182
sS'receiving'
p392
F-9.975847968006786
sS'cause'
p393
F-9.975847968006786
sS'shows'
p394
F-9.39088546728563
sS'loved\n'
p395
F-10.975847968006786
sS'shut'
p396
F-9.975847968006786
sS'earlier'
p397
F-9.975847968006786
sS'bass'
p398
F-9.975847968006786
sS'pathetic'
p399
F-9.975847968006786
sS'for\n'
p400
F-10.975847968006786
sS'worns'
p401
F-9.975847968006786
sS'cool\n'
p402
F-10.975847968006786
sS'story'
p403
F-9.975847968006786
sS'selling\n'
p404
F-10.975847968006786
sS'completely'
p405
F-9.39088546728563
sS'beginning'
p406
F-9.975847968006786
sS'card'
p407
F-7.390885467285629
sS'headphones\n'
p408
F-10.975847968006786
sS'flipkart\n'
p409
F-10.975847968006786
sS'g'
p410
F-9.975847968006786
sS'book\n'
p411
F-10.975847968006786
sS'headphones'
p412
F-8.975847968006786
sS'built\n'
p413
F-10.975847968006786
sS'days'
p414
F-8.653919873119422
sS'keep'
p415
F-9.975847968006786
sS'shipped'
p416
F-9.39088546728563
sS'expecting'
p417
F-9.975847968006786
sS'hopeless'
p418
F-9.975847968006786
sS'lte'
p419
F-9.975847968006786
sS'met\n'
p420
F-10.975847968006786
sS'uses'
p421
F-9.975847968006786
sS'flip\n'
p422
F-10.975847968006786
sS'loud'
p423
F-9.975847968006786
sS'waited'
p424
F-9.975847968006786
sS'first'
p425
F-9.975847968006786
sS'card\n'
p426
F-10.975847968006786
sS'already'
p427
F-9.39088546728563
sS'refund\n'
p428
F-10.975847968006786
sS'dont'
p429
F-6.452286011949772
sS'feel'
p430
F-9.39088546728563
sS'low\n'
p431
F-10.975847968006786
sS'coding'
p432
F-9.975847968006786
sS'primary'
p433
F-9.975847968006786
sS'hearing'
p434
F-9.975847968006786
sS'enough\n'
p435
F-10.975847968006786
sS'rectifying'
p436
F-9.975847968006786
sS'long'
p437
F-9.39088546728563
sS'another'
p438
F-9.975847968006786
sS'blank'
p439
F-9.975847968006786
sS'easy\n'
p440
F-10.975847968006786
sS'clarity'
p441
F-9.975847968006786
sS'open'
p442
F-8.653919873119422
sS'size'
p443
F-9.975847968006786
sS'take'
p444
F-9.39088546728563
sS'little'
p445
F-9.975847968006786
sS'complete\n'
p446
F-10.975847968006786
sS'service'
p447
F-8.39088546728563
sS'processor\n'
p448
F-10.975847968006786
sS'top'
p449
F-9.39088546728563
sS'too\n'
p450
F-10.975847968006786
sS'system'
p451
F-9.39088546728563
sS'least'
p452
F-9.975847968006786
sS'plastic'
p453
F-9.975847968006786
sS'anyone'
p454
F-9.975847968006786
sS'does\n'
p455
F-10.975847968006786
sS'this\n'
p456
F-10.975847968006786
sS'too'
p457
F-8.653919873119422
sS'deliverd\n'
p458
F-10.975847968006786
sS'show'
p459
F-9.975847968006786
sS'inconvenient'
p460
F-9.975847968006786
sS'music\n'
p461
F-10.975847968006786
sS'friend'
p462
F-9.975847968006786
sS'mic\n'
p463
F-10.975847968006786
sS'selling'
p464
F-9.39088546728563
sS'sealed'
p465
F-9.975847968006786
sS'mobile\n'
p466
F-10.975847968006786
sS'return\n'
p467
F-10.975847968006786
sS'dont\n'
p468
F-10.975847968006786
sS'daily\n'
p469
F-10.975847968006786
sS'part'
p470
F-9.975847968006786
sS'lag\n'
p471
F-10.975847968006786
sS'face\n'
p472
F-10.975847968006786
sS'jeans\n'
p473
F-10.975847968006786
sS'fooled'
p474
F-9.975847968006786
sS'old\n'
p475
F-10.975847968006786
sS'recommend\n'
p476
F-10.975847968006786
sS'awesome\n'
p477
F-10.975847968006786
sS'phones\n'
p478
F-10.975847968006786
sS'brand\n'
p479
F-10.975847968006786
sS'sound\n'
p480
F-10.975847968006786
sS'much\n'
p481
F-10.975847968006786
sS'takes\n'
p482
F-10.975847968006786
sS'recommended\n'
p483
F-10.975847968006786
sS'crap\n'
p484
F-10.975847968006786
sS'outrageous'
p485
F-9.975847968006786
sS'matter'
p486
F-9.975847968006786
sS'silly'
p487
F-9.975847968006786
sS'painful'
p488
F-9.975847968006786
sS'fedup'
p489
F-9.975847968006786
sS'gamecrazy'
p490
F-9.975847968006786
sS'plastic\n'
p491
F-10.975847968006786
sS'similar'
p492
F-9.975847968006786
sS'octa-core'
p493
F-9.975847968006786
sS'k\n'
p494
F-10.975847968006786
sS'caller\n'
p495
F-10.975847968006786
sS'sad'
p496
F-9.975847968006786
sS'performance\n'
p497
F-10.975847968006786
sS'sturdier'
p498
F-9.975847968006786
sS'expected\n'
p499
F-10.975847968006786
sS'need'
p500
F-8.975847968006786
sS'seen'
p501
F-9.975847968006786
sS'mins'
p502
F-9.975847968006786
sS'goodin'
p503
F-9.975847968006786
sS'bad\n'
p504
F-10.975847968006786
sS'earphones\n'
p505
F-10.975847968006786
sS'search\n'
p506
F-10.975847968006786
sS'fits\n'
p507
F-10.975847968006786
sS'genuine'
p508
F-9.975847968006786
sS'built'
p509
F-9.39088546728563
sS'been\n'
p510
F-10.975847968006786
sS'open\n'
p511
F-10.975847968006786
sS'-'
p512
I1
sS'experience\n'
p513
F-10.975847968006786
sS'purchasing'
p514
F-9.975847968006786
sS'specs'
p515
F-9.975847968006786
sS'recommended'
p516
F-9.975847968006786
sS'potential'
p517
F-9.975847968006786
sS'disappointment\n'
p518
F-10.975847968006786
sS'build'
p519
F-9.975847968006786
sS'week\n'
p520
F-10.975847968006786
sS'online'
p521
F-9.975847968006786
sS'performance'
p522
F-8.168493045949182
sS'comes\n'
p523
F-10.975847968006786
sS'tym'
p524
F-9.975847968006786
sS'experienced'
p525
F-9.975847968006786
sS'pain'
p526
F-9.975847968006786
sS'doesnt\n'
p527
F-10.975847968006786
sS'centre'
p528
F-9.39088546728563
sS'price'
p529
F-8.39088546728563
sS'sewing'
p530
F-9.975847968006786
sS'said'
p531
F-9.975847968006786
sS'connected'
p532
F-9.975847968006786
sS'device'
p533
F-9.975847968006786
sS'reviews\n'
p534
F-10.975847968006786
sS'strong\n'
p535
F-10.975847968006786
sS'speaker\n'
p536
F-10.975847968006786
sS'extremely'
p537
F-9.975847968006786
sS'why'
p538
F-8.975847968006786
sS'not\n'
p539
F-10.975847968006786
sS'volume'
p540
F-8.975847968006786
sS'though\n'
p541
F-10.975847968006786
sS'handset\n'
p542
F-10.975847968006786
sS'set\n'
p543
F-10.975847968006786
sS'looking\n'
p544
F-10.975847968006786
sS'mobile'
p545
F-8.39088546728563
sS'average'
p546
F-8.168493045949182
sS'later'
p547
F-9.975847968006786
sS'cover'
p548
F-9.975847968006786
sS'drive'
p549
F-9.975847968006786
sS'face'
p550
F-9.39088546728563
sS'looked'
p551
F-9.975847968006786
sS'fast\n'
p552
F-10.975847968006786
sS'properly'
p553
F-8.39088546728563
sS'voice\n'
p554
F-10.975847968006786
sS'complaints\n'
p555
F-10.975847968006786
sS'failed\n'
p556
F-10.975847968006786
sS'charged'
p557
F-9.39088546728563
sS'annoyed'
p558
F-9.975847968006786
sS'horrible\n'
p559
F-10.975847968006786
sS'refund'
p560
F-9.39088546728563
sS'buying\n'
p561
F-10.975847968006786
sS'ear\n'
p562
F-10.975847968006786
sS'delivelery'
p563
F-9.975847968006786
sS'delivery\n'
p564
F-10.975847968006786
sS'cheap'
p565
F-8.168493045949182
sS'love\n'
p566
F-10.975847968006786
sS'few\n'
p567
F-10.975847968006786
sS'fine'
p568
F-9.975847968006786
sS'keyboard\n'
p569
F-10.975847968006786
sS'one'
p570
F-9.975847968006786
sS'gives\n'
p571
F-10.975847968006786
sS'removed'
p572
F-9.975847968006786
sS'knowledge'
p573
F-9.975847968006786
sS'music'
p574
F-9.39088546728563
sS'while\n'
p575
F-10.975847968006786
sS'one\n'
p576
F-10.975847968006786
sS'feel\n'
p577
F-10.975847968006786
sS'written'
p578
F-9.975847968006786
sS'should'
p579
F-8.975847968006786
sS'failed'
p580
F-9.39088546728563
sS'only'
p581
F-9.975847968006786
sS'going'
p582
F-9.975847968006786
sS'expensive\n'
p583
F-10.975847968006786
sS'pretty'
p584
F-9.975847968006786
sS'photo'
p585
F-9.39088546728563
sS'properly\n'
p586
F-10.975847968006786
sS'waste\n'
p587
F-10.975847968006786
sS'slow\n'
p588
F-10.975847968006786
sS'arrived\n'
p589
F-10.975847968006786
sS'local'
p590
F-9.975847968006786
sS'inferior'
p591
F-9.975847968006786
sS'wire\n'
p592
F-10.975847968006786
sS'x\n'
p593
F-10.975847968006786
sS'touchscreen'
p594
F-9.975847968006786
sS'had\n'
p595
F-10.975847968006786
sS'handle'
p596
F-9.975847968006786
sS'days\n'
p597
F-10.975847968006786
sS'expectation'
p598
F-9.975847968006786
sS'allsound'
p599
F-9.975847968006786
sS'soon'
p600
F-9.39088546728563
sS'till\n'
p601
F-10.975847968006786
sS'amazon'
p602
F-8.975847968006786
sS'needs\n'
p603
F-10.975847968006786
sS'pair\n'
p604
F-10.975847968006786
sS'charging\n'
p605
F-10.975847968006786
sS'amazing\n'
p606
F-10.975847968006786
sS'anyone\n'
p607
F-10.975847968006786
sS'bar'
p608
F-9.975847968006786
sS'leather'
p609
F-9.975847968006786
sS'thetermax'
p610
F-9.975847968006786
sS'space\n'
p611
F-10.975847968006786
sS'color\n'
p612
F-10.975847968006786
sS'morning'
p613
F-9.39088546728563
sS'running\n'
p614
F-10.975847968006786
sS'bad'
p615
F-6.583530545228024
sS'please\n'
p616
F-10.975847968006786
sS'shots'
p617
F-9.975847968006786
sS'where'
p618
F-9.975847968006786
sS'ears'
p619
F-9.39088546728563
sS'set'
p620
F-9.39088546728563
sS'keypad'
p621
F-9.975847968006786
sS'frame'
p622
F-9.975847968006786
sS'searching\n'
p623
F-10.975847968006786
sS'game\n'
p624
F-10.975847968006786
sS'packet'
p625
F-9.975847968006786
sS'blurred'
p626
F-9.39088546728563
sS'edition'
p627
F-9.975847968006786
sS'see'
p628
F-9.975847968006786
sS'decided'
p629
F-9.975847968006786
sS'date\n'
p630
F-10.975847968006786
sS'new\n'
p631
F-10.975847968006786
sS'getting\n'
p632
F-10.975847968006786
sS'glue'
p633
F-9.975847968006786
sS'less\n'
p634
F-10.975847968006786
sS'didnt\n'
p635
F-10.975847968006786
sS'lots'
p636
F-9.39088546728563
sS'pictures'
p637
F-9.39088546728563
sS'away'
p638
F-9.975847968006786
sS'nicely\n'
p639
F-10.975847968006786
sS'please'
p640
F-7.975847968006785
sS'outside'
p641
F-9.39088546728563
sS'deceptively'
p642
F-9.975847968006786
sS'using\n'
p643
F-10.975847968006786
sS'horrible'
p644
F-8.975847968006786
sS'comfy\n'
p645
F-10.975847968006786
sS'reading'
p646
F-9.975847968006786
sS'having\n'
p647
F-10.975847968006786
sS'email'
p648
F-9.975847968006786
sS'bought'
p649
F-8.168493045949182
sS'ends'
p650
F-9.975847968006786
sS'sole'
p651
F-9.975847968006786
sS'creating'
p652
F-9.975847968006786
sS'missing'
p653
F-9.975847968006786
sS'screen'
p654
F-9.39088546728563
sS'outdoors'
p655
F-9.975847968006786
sS'weak'
p656
F-9.975847968006786
sS'however'
p657
F-9.975847968006786
sS'picture\n'
p658
F-10.975847968006786
sS'lot\n'
p659
F-10.975847968006786
sS'spare'
p660
F-9.975847968006786
sS'hurts'
p661
F-9.975847968006786
sS'useless'
p662
F-9.975847968006786
sS'however\n'
p663
F-10.975847968006786
sS'noticed\n'
p664
F-10.975847968006786
sS'received'
p665
F-7.653919873119423
sS'brilliant\n'
p666
F-10.975847968006786
sS'last'
p667
F-9.39088546728563
sS'here\n'
p668
F-10.975847968006786
sS'many'
p669
F-9.975847968006786
sS'ill'
p670
F-9.975847968006786
sS'description\n'
p671
F-10.975847968006786
sS'heating'
p672
F-9.975847968006786
sS'smart\n'
p673
F-10.975847968006786
sS'price\n'
p674
F-10.975847968006786
sS'games'
p675
F-9.975847968006786
sS'disappointment'
p676
F-9.975847968006786
sS'broken\n'
p677
F-10.975847968006786
sS'comes'
p678
F-9.975847968006786
sS'useful\n'
p679
F-10.975847968006786
sS'battery'
p680
F-8.168493045949182
sS'period'
p681
F-9.975847968006786
sS'pop'
p682
F-9.975847968006786
sS'packaging'
p683
F-9.39088546728563
sS'choice\n'
p684
F-10.975847968006786
sS'may\n'
p685
F-10.975847968006786
sS'replace\n'
p686
F-10.975847968006786
sS'trust'
p687
F-9.975847968006786
sS'expensive'
p688
F-9.975847968006786
sS'games\n'
p689
F-10.975847968006786
sS'late'
p690
F-9.975847968006786
sS'raise'
p691
F-9.975847968006786
sS'though'
p692
F-8.653919873119422
sS'money\n'
p693
F-10.975847968006786
sS'decent'
p694
F-8.975847968006786
sS'due'
p695
F-9.975847968006786
sS'doubt\n'
p696
F-10.975847968006786
sS'mark'
p697
F-9.975847968006786
sS'wish\n'
p698
F-10.975847968006786
sS'much'
p699
F-8.168493045949182
sS'damn'
p700
F-9.975847968006786
sS'must\n'
p701
F-10.975847968006786
sS'reading\n'
p702
F-10.975847968006786
sS'expected'
p703
F-8.168493045949182
sS'waste'
p704
F-7.068957372398266
sS'hardly'
p705
F-9.975847968006786
sS'comfortable\n'
p706
F-10.975847968006786
sS'life'
p707
F-9.39088546728563
sS'cord\n'
p708
F-10.975847968006786
sS'shopping'
p709
F-9.975847968006786
sS'search'
p710
F-9.975847968006786
sS'else'
p711
F-9.975847968006786
sS'external'
p712
F-9.975847968006786
sS'charges\n'
p713
F-10.975847968006786
sS'life\n'
p714
F-10.975847968006786
sS'sound'
p715
F-6.975847968006785
sS'exception'
p716
F-9.975847968006786
sS'metalpak'
p717
F-9.975847968006786
sS'main\n'
p718
F-10.975847968006786
sS'local\n'
p719
F-10.975847968006786
sS'like\n'
p720
F-10.975847968006786
sS'cash'
p721
F-9.975847968006786
sS'value'
p722
F-9.975847968006786
sS'n'
p723
F-9.975847968006786
sS'reason\n'
p724
F-10.975847968006786
sS'near'
p725
F-9.975847968006786
sS'shall'
p726
F-9.975847968006786
sS'error'
p727
F-9.975847968006786
sS'lives\n'
p728
F-10.975847968006786
sS'adapter'
p729
F-9.975847968006786
sS'pen\n'
p730
F-10.975847968006786
sS'mistake'
p731
F-9.975847968006786
sS'noticed'
p732
F-9.39088546728563
sS'hoping'
p733
F-9.975847968006786
sS'almost'
p734
F-9.39088546728563
sS'cost\n'
p735
F-10.975847968006786
sS'solid\n'
p736
F-10.975847968006786
sS'it'
p737
F-8.653919873119422
sS'centre\n'
p738
F-10.975847968006786
sS'disappointing'
p739
F-9.975847968006786
sS'charge\n'
p740
F-10.975847968006786
sS'draining'
p741
F-9.975847968006786
sS'itself'
p742
F-9.39088546728563
sS'im'
p743
F-8.39088546728563
sS'dual'
p744
F-9.975847968006786
sS'ambient'
p745
F-9.975847968006786
sS'claimed'
p746
F-9.975847968006786
sS'bucks'
p747
F-9.975847968006786
sS'suitable\n'
p748
F-10.975847968006786
sS'battery\n'
p749
F-10.975847968006786
sS'technology'
p750
F-9.975847968006786
sS'id'
p751
F-9.39088546728563
sS'trusted'
p752
F-9.975847968006786
sS'issues\n'
p753
F-10.975847968006786
sS'hone'
p754
F-9.975847968006786
sS'phone\n'
p755
F-10.975847968006786
sS'different'
p756
F-9.39088546728563
sS'null'
p757
F-9.975847968006786
sS'anymore'
p758
F-9.975847968006786
sS'thought\n'
p759
F-10.975847968006786
sS'suggest'
p760
F-9.39088546728563
sS'make'
p761
F-9.39088546728563
sS'waist\n'
p762
F-10.975847968006786
sS'use\n'
p763
F-10.975847968006786
sS'same'
p764
F-9.39088546728563
sS'started\n'
p765
F-10.975847968006786
sS'packaging\n'
p766
F-10.975847968006786
sS'reasonable\n'
p767
F-10.975847968006786
sS'drawback'
p768
F-9.975847968006786
sS'speaker'
p769
F-9.39088546728563
sS'top\n'
p770
F-10.975847968006786
sS'grand'
p771
F-9.975847968006786
sS'resulting'
p772
F-9.975847968006786
sS'said\n'
p773
F-10.975847968006786
sS'gets'
p774
F-9.39088546728563
sS'showing'
p775
F-8.39088546728563
sS'difficult'
p776
F-9.975847968006786
sS'week'
p777
F-9.975847968006786
sS'avoid\n'
p778
F-10.975847968006786
sS'used'
p779
F-7.653919873119423
sS'dime'
p780
F-9.975847968006786
sS'keys'
p781
F-9.975847968006786
sS'hang'
p782
F-9.975847968006786
sS'effect'
p783
F-9.975847968006786
sS'buy\n'
p784
F-10.975847968006786
sS'cant\n'
p785
F-10.975847968006786
sS'thing\n'
p786
F-10.975847968006786
sS'running'
p787
F-9.975847968006786
sS'arrived'
p788
F-9.39088546728563
sS'delicate'
p789
F-9.975847968006786
sS'bag\n'
p790
F-10.975847968006786
sS'frequently'
p791
F-9.975847968006786
sS'onedont'
p792
F-9.975847968006786
sS'totally'
p793
F-9.975847968006786
sS'single'
p794
F-9.975847968006786
sS'stand\n'
p795
F-10.975847968006786
sS'buck\n'
p796
F-10.975847968006786
sS'kept'
p797
F-9.39088546728563
sS'past\n'
p798
F-10.975847968006786
sS'rupee'
p799
F-9.975847968006786
sS'well'
p800
F-9.39088546728563
sS'sturdy\n'
p801
F-10.975847968006786
sS'thought'
p802
F-8.975847968006786
sS'restartswitch'
p803
F-9.975847968006786
sS'blindly\n'
p804
F-10.975847968006786
sS'contact'
p805
F-9.39088546728563
sS'command'
p806
F-9.975847968006786
sS'fake\n'
p807
F-10.975847968006786
sS'delivered\n'
p808
F-10.975847968006786
sS'soon\n'
p809
F-10.975847968006786
sS'model'
p810
F-9.975847968006786
sS'jbl'
p811
F-9.39088546728563
sS'left'
p812
F-9.975847968006786
sS'stopped\n'
p813
F-10.975847968006786
sS'work\n'
p814
F-10.975847968006786
sS'less'
p815
F-9.975847968006786
sS'money'
p816
F-6.975847968006785
sS'shoes\n'
p817
F-10.975847968006786
sS'rest'
p818
F-9.975847968006786
sS'sony\n'
p819
F-10.975847968006786
sS'quality\n'
p820
F-10.975847968006786
sS'either\n'
p821
F-10.975847968006786
sS'using'
p822
F-9.39088546728563
sS'touch'
p823
F-9.975847968006786
sS'mcdavid'
p824
F-9.975847968006786
sS'badfogy'
p825
F-9.975847968006786
sS'speed'
p826
F-9.975847968006786
sS'yet'
p827
F-8.975847968006786
sS'size\n'
p828
F-10.975847968006786
sS'average\n'
p829
F-10.975847968006786
sS'yellow\n'
p830
F-10.975847968006786
sS'loading'
p831
F-9.975847968006786
sS'returned\n'
p832
F-10.975847968006786
sS'unable'
p833
F-9.975847968006786
sS'had'
p834
F-8.39088546728563
sS'improvement'
p835
F-9.975847968006786
sS'ive\n'
p836
F-10.975847968006786
sS'lets'
p837
F-9.975847968006786
sS'attractive'
p838
F-9.975847968006786
sS'perfect\n'
p839
F-10.975847968006786
sS'reason'
p840
F-9.39088546728563
sS'supposed\n'
p841
F-10.975847968006786
sS'struck'
p842
F-9.975847968006786
sS'has'
p843
F-8.653919873119422
sS'gave'
p844
F-9.975847968006786
sS'customers'
p845
F-9.975847968006786
sS'around'
p846
F-8.39088546728563
sS'big'
p847
F-8.975847968006786
sS'couple'
p848
F-9.975847968006786
sS'well\n'
p849
F-10.975847968006786
sS'lags\n'
p850
F-10.975847968006786
sS'dark'
p851
F-9.975847968006786
sS'game'
p852
F-7.805922966564473
sS'were'
p853
F-9.39088546728563
sS'know'
p854
F-9.39088546728563
sS'provides\n'
p855
F-10.975847968006786
sS'taking'
p856
F-9.975847968006786
sS'bit'
p857
F-9.975847968006786
sS'photocopied'
p858
F-9.975847968006786
sS'disappointed'
p859
F-7.516416349369488
sS'd'
p860
F-9.975847968006786
sS'slim\n'
p861
F-10.975847968006786
sS'long\n'
p862
F-10.975847968006786
sS'faster\n'
p863
F-10.975847968006786
sS'like'
p864
F-7.390885467285629
sS'bought\n'
p865
F-10.975847968006786
sS'ago\n'
p866
F-10.975847968006786
sS'signal'
p867
F-9.975847968006786
sS'design\n'
p868
F-10.975847968006786
sS'server'
p869
F-9.975847968006786
sS'sorry\n'
p870
F-10.975847968006786
sS'either'
p871
F-9.975847968006786
sS'night'
p872
F-9.975847968006786
sS'found\n'
p873
F-10.975847968006786
sS'output'
p874
F-9.975847968006786
sS'faulty\n'
p875
F-10.975847968006786
sS'works'
p876
F-9.39088546728563
sS'satisfactory'
p877
F-9.39088546728563
sS'right'
p878
F-9.975847968006786
sS'old'
p879
F-9.39088546728563
sS'were\n'
p880
F-10.975847968006786
sS'deal'
p881
F-9.39088546728563
sS'nevr'
p882
F-9.975847968006786
sS'completely\n'
p883
F-10.975847968006786
sS'creation'
p884
F-9.975847968006786
sS'compared\n'
p885
F-10.975847968006786
sS'dead'
p886
F-9.975847968006786
sS'sim\n'
p887
F-10.975847968006786
sS'month\n'
p888
F-10.975847968006786
sS'id\n'
p889
F-10.975847968006786
sS'unless'
p890
F-9.39088546728563
sS'good\n'
p891
F-10.975847968006786
sS'casual\n'
p892
F-10.975847968006786
sS'used\n'
p893
F-10.975847968006786
sS'packed\n'
p894
F-10.975847968006786
sS'change\n'
p895
F-10.975847968006786
sS'delivered'
p896
F-9.39088546728563
sS'opened\n'
p897
F-10.975847968006786
sS'bottom'
p898
F-9.975847968006786
sS'notification'
p899
F-9.975847968006786
sS'avoid'
p900
F-8.975847968006786
sS'normal'
p901
F-9.39088546728563
sS'per'
p902
F-9.975847968006786
sS'seller'
p903
F-7.975847968006785
sS'pretty\n'
p904
F-10.975847968006786
sS'second\n'
p905
F-10.975847968006786
sS'pen'
p906
F-9.975847968006786
sS'does'
p907
F-7.805922966564473
sS'seems\n'
p908
F-10.975847968006786
sS'expect\n'
p909
F-10.975847968006786
sS'three'
p910
F-9.975847968006786
sS'trap'
p911
F-9.975847968006786
sS'intend\n'
p912
F-10.975847968006786
sS'pls'
p913
F-9.975847968006786
sS'durable\n'
p914
F-10.975847968006786
sS'power'
p915
F-8.653919873119422
sS'great\n'
p916
F-10.975847968006786
sS'seconds'
p917
F-9.975847968006786
sS'processing'
p918
F-9.975847968006786
sS'plz'
p919
F-9.975847968006786
sS'compare\n'
p920
F-10.975847968006786
sS'bt'
p921
F-9.975847968006786
sS'broken'
p922
F-9.39088546728563
sS'quite\n'
p923
F-10.975847968006786
sS'paper\n'
p924
F-10.975847968006786
sS'worthy'
p925
F-9.975847968006786
sS'such\n'
p926
F-10.975847968006786
sS'liked\n'
p927
F-10.975847968006786
sS'throw'
p928
F-9.975847968006786
sS'contact\n'
p929
F-10.975847968006786
sS'image\n'
p930
F-10.975847968006786
sS'ok'
p931
F-9.39088546728563
sS'carried'
p932
F-9.975847968006786
sS'getting'
p933
F-9.39088546728563
sS'ideal\n'
p934
F-10.975847968006786
sS'months'
p935
F-7.653919873119423
sS'stuff\n'
p936
F-10.975847968006786
sS'photo\n'
p937
F-10.975847968006786
sS'gets\n'
p938
F-10.975847968006786
sS'nothing'
p939
F-9.39088546728563
sS'works\n'
p940
F-10.975847968006786
sS'disappointed\n'
p941
F-10.975847968006786
sS'words\n'
p942
F-10.975847968006786
sS'consequently'
p943
F-9.975847968006786
sS'processor'
p944
F-9.39088546728563
sS'automatically'
p945
F-9.975847968006786
sS'software'
p946
F-9.975847968006786
sS'warranty'
p947
F-9.975847968006786
sS'customer\n'
p948
F-10.975847968006786
sS'whats'
p949
F-9.975847968006786
sS'garbage'
p950
F-9.975847968006786
sS'magazine\n'
p951
F-10.975847968006786
sS'image'
p952
F-9.39088546728563
sS'within'
p953
F-8.653919873119422
sS'satisfied\n'
p954
F-10.975847968006786
sS'nonsense'
p955
F-9.975847968006786
sS'headphone'
p956
F-9.39088546728563
sS'complaints'
p957
F-9.975847968006786
sS'doesnt'
p958
F-8.975847968006786
sS'why\n'
p959
F-10.975847968006786
sS'u\n'
p960
F-10.975847968006786
sS'worked\n'
p961
F-10.975847968006786
sS'build\n'
p962
F-10.975847968006786
sS'impressed'
p963
F-9.975847968006786
sS'trimmer\n'
p964
F-10.975847968006786
sS'damaged\n'
p965
F-10.975847968006786
sS'outbreaks'
p966
F-9.975847968006786
sS'support'
p967
F-9.39088546728563
sS'speed\n'
p968
F-10.975847968006786
sS'apps'
p969
F-9.975847968006786
sS'fast'
p970
F-9.975847968006786
sS'lags'
p971
F-8.975847968006786
sS'super\n'
p972
F-10.975847968006786
sS'balanced\n'
p973
F-10.975847968006786
sS'low'
p974
F-8.168493045949182
sS'lot'
p975
F-8.975847968006786
sS'biggest'
p976
F-9.975847968006786
sS'editions'
p977
F-9.975847968006786
sS'morning\n'
p978
F-10.975847968006786
sS'was'
p979
F-9.975847968006786
sS'sd\n'
p980
F-10.975847968006786
sS'happy'
p981
F-8.975847968006786
sS'touch\n'
p982
F-10.975847968006786
sS'again\n'
p983
F-10.975847968006786
sS'buy'
p984
F-6.117866972879213
sS'complete'
p985
F-9.975847968006786
sS'fantastic\n'
p986
F-10.975847968006786
sS'bass\n'
p987
F-10.975847968006786
sS'brand'
p988
F-9.975847968006786
sS'recommend'
p989
F-8.653919873119422
sS'users\n'
p990
F-10.975847968006786
sS'deliverd'
p991
F-9.39088546728563
sS'delivery'
p992
F-9.975847968006786
sS'repeated'
p993
F-9.975847968006786
sS'hi'
p994
F-9.975847968006786
sS'hear'
p995
F-9.975847968006786
sS'highly\n'
p996
F-10.975847968006786
sS'ear'
p997
F-8.975847968006786
sS'brans'
p998
F-9.975847968006786
sS'buying'
p999
F-8.975847968006786
sS'posted'
p1000
F-9.975847968006786
sS'absent'
p1001
F-9.975847968006786
sS'made'
p1002
F-8.653919873119422
sS'wish'
p1003
F-9.975847968006786
sS'caller'
p1004
F-8.975847968006786
sS'up'
p1005
F-9.975847968006786
sS'us'
p1006
F-9.975847968006786
sS'ur'
p1007
F-9.975847968006786
sS'headset\n'
p1008
F-10.975847968006786
sS'another\n'
p1009
F-10.975847968006786
sS'below'
p1010
F-9.39088546728563
sS'notch\n'
p1011
F-10.975847968006786
sS'impressed\n'
p1012
F-10.975847968006786
sS'problem'
p1013
F-8.653919873119422
sS'piece'
p1014
F-8.975847968006786
sS'minutes'
p1015
F-9.975847968006786
sS'display'
p1016
F-9.39088546728563
sS'expect'
p1017
F-8.975847968006786
sS'service\n'
p1018
F-10.975847968006786
sS'very\n'
p1019
F-10.975847968006786
sS'knowledge\n'
p1020
F-10.975847968006786
sS'since\n'
p1021
F-10.975847968006786
sS'keeping\n'
p1022
F-10.975847968006786
sS'upset'
p1023
F-9.975847968006786
sS'handset'
p1024
F-8.975847968006786
sS'year'
p1025
F-9.975847968006786
sS'yet\n'
p1026
F-10.975847968006786
sS'weight\n'
p1027
F-10.975847968006786
sS'purchasing\n'
p1028
F-10.975847968006786
sS'wear\n'
p1029
F-10.975847968006786
sS'beats'
p1030
F-9.975847968006786
sS'showing\n'
p1031
F-10.975847968006786
sS'blurred\n'
p1032
F-10.975847968006786
sS'annoying'
p1033
F-9.975847968006786
sS'check'
p1034
F-9.975847968006786
sS'worse'
p1035
F-9.39088546728563
sS'call\n'
p1036
F-10.975847968006786
sS'again'
p1037
F-8.975847968006786
sS'samsung\n'
p1038
F-10.975847968006786
sS'compared'
p1039
F-9.39088546728563
sS'side\n'
p1040
F-10.975847968006786
sS'no'
p1041
F-8.653919873119422
sS'piece\n'
p1042
F-10.975847968006786
sS'storage'
p1043
F-9.975847968006786
sS'repent'
p1044
F-9.975847968006786
sS'outstanding\n'
p1045
F-10.975847968006786
sS'charger\n'
p1046
F-10.975847968006786
sS'book'
p1047
F-8.975847968006786
sS'power\n'
p1048
F-10.975847968006786
sS'problem\n'
p1049
F-10.975847968006786
sS'u'
p1050
F-9.975847968006786
sS'fools'
p1051
F-9.975847968006786
sS'simply\n'
p1052
F-10.975847968006786
sS'brother\n'
p1053
F-10.975847968006786
sS'nw'
p1054
F-9.975847968006786
sS'poor'
p1055
F-6.888385126756446
sS'picture'
p1056
F-8.975847968006786
sS'junk'
p1057
F-9.975847968006786
sS'repeat'
p1058
F-9.975847968006786
sS'intend'
p1059
F-9.39088546728563
sS'fifa\n'
p1060
F-10.975847968006786
sS'duplicate\n'
p1061
F-10.975847968006786
sS'cover\n'
p1062
F-10.975847968006786
sS'problems'
p1063
F-9.975847968006786
sS'againplease'
p1064
F-9.975847968006786
sS'bundle'
p1065
F-9.975847968006786
sS'replace'
p1066
F-8.975847968006786
sS'amount\n'
p1067
F-10.975847968006786
sS'stretch\n'
p1068
F-10.975847968006786
sS'satisfactory\n'
p1069
F-10.975847968006786
sS'sennheiser\n'
p1070
F-10.975847968006786
sS'bucks\n'
p1071
F-10.975847968006786
sS'worth\n'
p1072
F-10.975847968006786
sS'okay\n'
p1073
F-10.975847968006786
sS'earphones'
p1074
F-9.975847968006786
sS'ago'
p1075
F-9.39088546728563
sS'im\n'
p1076
F-10.975847968006786
sS'cable\n'
p1077
F-10.975847968006786
sS'jbl\n'
p1078
F-10.975847968006786
sS'samsung'
p1079
F-9.39088546728563
sS'unless\n'
p1080
F-10.975847968006786
sS'charged\n'
p1081
F-10.975847968006786
sS'contacts'
p1082
F-9.975847968006786
sS'original'
p1083
F-8.975847968006786
sS'itself\n'
p1084
F-10.975847968006786
sS'heats'
p1085
F-9.975847968006786
sS'nice\n'
p1086
F-10.975847968006786
sS'time'
p1087
F-7.805922966564473
sS'alright'
p1088
F-9.975847968006786
sS'having'
p1089
F-9.39088546728563
sS'video\n'
p1090
F-10.975847968006786
s.