(dp0
S'fifa'
p1
F-7.225609134019991
sS'refund'
p2
F-7.810571634741147
sS'shoes'
p3
F-7.810571634741147
sS'caused'
p4
F-7.810571634741147
sS'lack'
p5
F-7.810571634741147
sS'satisfied'
p6
F-7.810571634741147
sS'blisters'
p7
F-7.810571634741147
sS'playing'
p8
F-7.810571634741147
sS'reformatted'
p9
F-7.810571634741147
sS'mcdavid'
p10
F-7.810571634741147
sS'glue'
p11
F-7.810571634741147
sS'yet'
p12
F-7.810571634741147
sS'issues'
p13
F-6.810571634741147
sS'slow'
p14
F-7.225609134019991
sS'knowledge'
p15
F-7.810571634741147
sS'had'
p16
F-7.810571634741147
sS'improvement'
p17
F-7.810571634741147
sS'better'
p18
F-7.810571634741147
sS'failed'
p19
F-7.810571634741147
sS'dissatisfied'
p20
F-7.810571634741147
sS'pretty'
p21
F-7.810571634741147
sS'money'
p22
F-5.35114001610385
sS'sorry'
p23
F-7.810571634741147
sS'has'
p24
F-7.810571634741147
sS'seller'
p25
F-7.225609134019991
sS'useless'
p26
F-7.810571634741147
sS'me'
p27
F-7.810571634741147
sS'customers'
p28
F-7.810571634741147
sS'good'
p29
F-6.225609134019991
sS'return'
p30
F-7.810571634741147
sS'around'
p31
F-7.810571634741147
sS'very'
p32
F-5.640646633298835
sS'showing'
p33
F-7.810571634741147
sS'sloppy'
p34
F-7.810571634741147
sS'game'
p35
F-5.640646633298835
sS'worst'
p36
F-6.225609134019991
sS'not'
p37
F-3.856375324354272
sS'soles'
p38
F-7.810571634741147
sS'disappointed'
p39
F-6.810571634741147
sS'condition'
p40
F-7.810571634741147
sS'wont'
p41
F-7.810571634741147
sS'like'
p42
F-7.225609134019991
sS'cable'
p43
F-7.810571634741147
sS'trimmer'
p44
F-7.810571634741147
sS'leather'
p45
F-7.810571634741147
sS'signal'
p46
F-7.810571634741147
sS'brother'
p47
F-7.810571634741147
sS'non-functional'
p48
F-7.810571634741147
sS'did'
p49
F-7.225609134019991
sS'bad'
p50
F-5.110131916600055
sS'stopped'
p51
F-7.810571634741147
sS'trap'
p52
F-7.810571634741147
sS'where'
p53
F-7.810571634741147
sS'side'
p54
F-7.810571634741147
sS'satisfactory'
p55
F-7.810571634741147
sS'deal'
p56
F-7.810571634741147
sS'creation'
p57
F-7.810571634741147
sS'ea'
p58
F-7.810571634741147
sS'product'
p59
F-4.4886435398537845
sS'decided'
p60
F-7.810571634741147
sS'gamecrazy'
p61
F-7.810571634741147
sS'connect'
p62
F-7.810571634741147
sS'server'
p63
F-7.810571634741147
sS'shown'
p64
F-7.810571634741147
sS'item'
p65
F-7.225609134019991
sS'since'
p66
F-7.810571634741147
sS'please'
p67
F-7.810571634741147
sS'its'
p68
F-7.225609134019991
sS'access'
p69
F-7.810571634741147
sS'does'
p70
F-6.225609134019991
sS'horrible'
p71
F-6.810571634741147
sS'ever'
p72
F-6.225609134019991
sS'bought'
p73
F-7.225609134019991
sS'hdmi'
p74
F-7.810571634741147
sS'never'
p75
F-6.810571634741147
sS'weak'
p76
F-7.810571634741147
sS'use'
p77
F-7.810571634741147
sS'here'
p78
F-7.810571634741147
sS'broken'
p79
F-7.810571634741147
sS'completely'
p80
F-7.225609134019991
sS'gameplay'
p81
F-7.810571634741147
sS'card'
p82
F-7.810571634741147
sS'received'
p83
F-6.225609134019991
sS'great'
p84
F-7.810571634741147
sS'piece'
p85
F-7.810571634741147
sS'hard'
p86
F-7.225609134019991
sS'working'
p87
F-5.810571634741147
sS'met'
p88
F-7.810571634741147
sS'many'
p89
F-7.810571634741147
sS'days'
p90
F-7.225609134019991
sS'experience'
p91
F-7.810571634741147
sS'shipped'
p92
F-7.810571634741147
sS'loud'
p93
F-7.810571634741147
sS'dont'
p94
F-6.488643539853785
sS'garbage'
p95
F-7.810571634741147
sS'highly'
p96
F-6.810571634741147
sS'packaging'
p97
F-7.810571634741147
sS'doesnt'
p98
F-7.810571634741147
sS'another'
p99
F-7.810571634741147
sS'trust'
p100
F-7.810571634741147
sS'quality'
p101
F-5.22560913401999
sS'expensive'
p102
F-7.810571634741147
sS'late'
p103
F-7.810571634741147
sS'little'
p104
F-7.810571634741147
sS'service'
p105
F-7.225609134019991
sS'decent'
p106
F-7.810571634741147
sS'support'
p107
F-7.810571634741147
sS'waist'
p108
F-7.810571634741147
sS'lags'
p109
F-7.810571634741147
sS'anyone'
p110
F-7.810571634741147
sS'few'
p111
F-7.810571634741147
sS'low'
p112
F-7.810571634741147
sS'lot'
p113
F-7.225609134019991
sS'recommend'
p114
F-6.810571634741147
sS'expected'
p115
F-6.810571634741147
sS'inconvenient'
p116
F-7.810571634741147
sS'waste'
p117
F-5.640646633298835
sS'today'
p118
F-7.810571634741147
sS'happy'
p119
F-6.810571634741147
sS'buy'
p120
F-5.35114001610385
sS'else'
p121
F-7.810571634741147
sS'delivery'
p122
F-7.810571634741147
sS'properly'
p123
F-7.225609134019991
sS'too'
p124
F-6.488643539853785
sS'must'
p125
F-7.810571634741147
sS'customer'
p126
F-7.810571634741147
sS'this'
p127
F-7.810571634741147
sS'work'
p128
F-6.003216712683543
sS'cash'
p129
F-7.810571634741147
sS'value'
p130
F-7.810571634741147
sS'outrageous'
p131
F-7.810571634741147
sS'silly'
p132
F-7.810571634741147
sS'following'
p133
F-7.810571634741147
sS'more'
p134
F-7.810571634741147
sS'didnt'
p135
F-7.810571634741147
sS'sad'
p136
F-7.810571634741147
sS'high'
p137
F-7.810571634741147
sS'arrangements'
p138
F-7.810571634741147
sS'im'
p139
F-7.225609134019991
sS'purchased'
p140
F-7.810571634741147
sS'disliked'
p141
F-7.810571634741147
sS'worse'
p142
F-7.810571634741147
sS'returned'
p143
F-7.810571634741147
sS'again'
p144
F-7.810571634741147
sS'damaged'
p145
F-7.810571634741147
sS'anymore'
p146
F-7.810571634741147
sS'no'
p147
F-7.225609134019991
sS'suggest'
p148
F-7.810571634741147
sS'make'
p149
F-7.225609134019991
sS'machine'
p150
F-7.225609134019991
sS'build'
p151
F-7.810571634741147
sS'online'
p152
F-7.810571634741147
sS'performance'
p153
F-7.225609134019991
sS'poor'
p154
F-6.225609134019991
sS'junk'
p155
F-7.810571634741147
sS'used'
p156
F-7.225609134019991
sS'description'
p157
F-7.225609134019991
sS'crashes'
p158
F-7.810571634741147
sS'dime'
p159
F-7.810571634741147
sS'price'
p160
F-7.225609134019991
sS'sewing'
p161
F-7.810571634741147
sS'different'
p162
F-7.225609134019991
sS'running'
p163
F-7.810571634741147
sS'arrived'
p164
F-7.810571634741147
sS'nothing'
p165
F-7.810571634741147
sS'why'
p166
F-7.810571634741147
sS'purchase'
p167
F-7.810571634741147
sS'defective'
p168
F-7.810571634741147
sS'original'
p169
F-7.810571634741147
sS'looked'
p170
F-7.810571634741147
sS'time'
p171
F-7.810571634741147
sS'annoyed'
p172
F-7.810571634741147
sS'left'
p173
F-7.810571634741147
s.